target datalayout = "e-m:e-p270:32:32-p271:32:32-p272:64:64-i64:64-i128:128-f80:128-n8:16:32:64-S128"
target triple = "x86_64-unknown-linux-gnu"

%struct.in6_addr = type { %union.anon }
%union.anon = type { [4 x i32] }
%struct.sockaddr_in = type { i16, i16, %struct.in_addr, [8 x i8] }
%struct.in_addr = type { i32 }
%struct.sockaddr_in6 = type { i16, i16, i32, %struct.in6_addr, i32 }
%"union.zmq::ip_addr_t" = type { %struct.sockaddr_in6 }

@in6addr_any = external global %struct.in6_addr, align 4

; Function Attrs: mustprogress nounwind uwtable
define void @_ZN3zmq9ip_addr_t3anyEi(ptr noalias sret(%"union.zmq::ip_addr_t") align 4 %agg.result, i32 noundef %family_) #0 align 2 {
entry:
  %family_.addr = alloca i32, align 4
  %ip4_addr = alloca ptr, align 8
  %ip6_addr = alloca ptr, align 8
  store i32 %family_, ptr %family_.addr, align 4
  %0 = load i32, ptr %family_.addr, align 4
  %cmp = icmp eq i32 %0, 2
  br i1 %cmp, label %if.then, label %if.else

if.then:                                          ; preds = %entry
  store ptr %agg.result, ptr %ip4_addr, align 8
  %1 = load ptr, ptr %ip4_addr, align 8
  call void @llvm.memset.p0.i64(ptr align 4 %1, i8 0, i64 16, i1 false)
  %2 = load ptr, ptr %ip4_addr, align 8
  %sin_family = getelementptr inbounds %struct.sockaddr_in, ptr %2, i32 0, i32 0
  store i16 2, ptr %sin_family, align 4
  %call = call i32 @htonl(i32 noundef 0) #9
  %3 = load ptr, ptr %ip4_addr, align 8
  %sin_addr = getelementptr inbounds %struct.sockaddr_in, ptr %3, i32 0, i32 2
  %s_addr = getelementptr inbounds %struct.in_addr, ptr %sin_addr, i32 0, i32 0
  store i32 %call, ptr %s_addr, align 4
  br label %if.end4

if.else:                                          ; preds = %entry
  %4 = load i32, ptr %family_.addr, align 4
  %cmp1 = icmp eq i32 %4, 10
  br i1 %cmp1, label %if.then2, label %if.else3

if.then2:                                         ; preds = %if.else
  store ptr %agg.result, ptr %ip6_addr, align 8
  %5 = load ptr, ptr %ip6_addr, align 8
  call void @llvm.memset.p0.i64(ptr align 4 %5, i8 0, i64 28, i1 false)
  %6 = load ptr, ptr %ip6_addr, align 8
  %sin6_family = getelementptr inbounds %struct.sockaddr_in6, ptr %6, i32 0, i32 0
  store i16 10, ptr %sin6_family, align 4
  %7 = load ptr, ptr %ip6_addr, align 8
  %sin6_addr = getelementptr inbounds %struct.sockaddr_in6, ptr %7, i32 0, i32 3
  call void @llvm.memcpy.p0.p0.i64(ptr align 4 %sin6_addr, ptr align 4 @in6addr_any, i64 16, i1 false)
  br label %if.end

if.else3:                                         ; preds = %if.else
  br label %if.end

if.end:                                           ; preds = %if.else3, %if.then2
  br label %if.end4

if.end4:                                          ; preds = %if.end, %if.then
  ret void
}