; Function Attrs: mustprogress nofree nosync nounwind willreturn memory(readwrite, inaccessiblemem: none) uwtable
define void @_ZN3zmq9ip_addr_t3anyEi(ptr noalias nocapture writeonly sret(%"union.zmq::ip_addr_t") align 4 %agg.result, i32 noundef %family_) local_unnamed_addr #5 align 2 {
entry:
  switch i32 %family_, label %if.end4 [
    i32 2, label %if.then
    i32 10, label %if.then2
  ]

if.then:                                          ; preds = %entry
  tail call void @llvm.memset.p0.i64(ptr noundef nonnull align 4 dereferenceable(16) %agg.result, i8 0, i64 16, i1 false)
  store i16 2, ptr %agg.result, align 4
  %call = tail call i32 @htonl(i32 noundef 0) #17
  %sin_addr = getelementptr inbounds i8, ptr %agg.result, i64 4
  store i32 %call, ptr %sin_addr, align 4
  br label %if.end4

if.then2:                                         ; preds = %entry
  tail call void @llvm.memset.p0.i64(ptr noundef nonnull align 4 dereferenceable(28) %agg.result, i8 0, i64 28, i1 false)
  store i16 10, ptr %agg.result, align 4
  %sin6_addr = getelementptr inbounds i8, ptr %agg.result, i64 8
  tail call void @llvm.memcpy.p0.p0.i64(ptr noundef nonnull align 4 dereferenceable(16) %sin6_addr, ptr noundef nonnull align 4 dereferenceable(16) @in6addr_any, i64 16, i1 false)
  br label %if.end4

if.end4:                                          ; preds = %entry, %if.then2, %if.then
  ret void
}